target datalayout = "e-m:e-p270:32:32-p271:32:32-p272:64:64-i64:64-i128:128-f80:128-n8:16:32:64-S128"
target triple = "x86_64-pc-linux-gnu"

%struct.ossl_cmp_itav_st = type { ptr, %union.anon }
%union.anon = type { ptr }

@.str.12 = private unnamed_addr constant [32 x i8] c"../openssl/crypto/cmp/cmp_asn.c\00", align 1
@__func__.OSSL_CMP_ITAV_get0_crls = private unnamed_addr constant [24 x i8] c"OSSL_CMP_ITAV_get0_crls\00", align 1

; Function Attrs: nounwind uwtable
define i32 @OSSL_CMP_ITAV_get0_crls(ptr noundef %0, ptr noundef %1) #0 {
  %3 = alloca i32, align 4
  %4 = alloca ptr, align 8
  %5 = alloca ptr, align 8
  store ptr %0, ptr %4, align 8, !tbaa !28
  store ptr %1, ptr %5, align 8, !tbaa !144
  %6 = load ptr, ptr %4, align 8, !tbaa !28
  %7 = icmp eq ptr %6, null
  br i1 %7, label %11, label %8

8:                                                ; preds = %2
  %9 = load ptr, ptr %5, align 8, !tbaa !144
  %10 = icmp eq ptr %9, null
  br i1 %10, label %11, label %12

11:                                               ; preds = %8, %2
  call void @ERR_new()
  call void @ERR_set_debug(ptr noundef @.str.12, i32 noundef 820, ptr noundef @__func__.OSSL_CMP_ITAV_get0_crls)
  call void (i32, i32, ptr, ...) @ERR_set_error(i32 noundef 58, i32 noundef 786690, ptr noundef null)
  store i32 0, ptr %3, align 4
  br label %24

12:                                               ; preds = %8
  %13 = load ptr, ptr %4, align 8, !tbaa !28
  %14 = getelementptr inbounds nuw %struct.ossl_cmp_itav_st, ptr %13, i32 0, i32 0
  %15 = load ptr, ptr %14, align 8, !tbaa !54
  %16 = call i32 @OBJ_obj2nid(ptr noundef %15)
  %17 = icmp ne i32 %16, 1257
  br i1 %17, label %18, label %19

18:                                               ; preds = %12
  call void @ERR_new()
  call void @ERR_set_debug(ptr noundef @.str.12, i32 noundef 824, ptr noundef @__func__.OSSL_CMP_ITAV_get0_crls)
  call void (i32, i32, ptr, ...) @ERR_set_error(i32 noundef 58, i32 noundef 524550, ptr noundef null)
  store i32 0, ptr %3, align 4
  br label %24

19:                                               ; preds = %12
  %20 = load ptr, ptr %4, align 8, !tbaa !28
  %21 = getelementptr inbounds nuw %struct.ossl_cmp_itav_st, ptr %20, i32 0, i32 1
  %22 = load ptr, ptr %21, align 8, !tbaa !56
  %23 = load ptr, ptr %5, align 8, !tbaa !144
  store ptr %22, ptr %23, align 8, !tbaa !142
  store i32 1, ptr %3, align 4
  br label %24

24:                                               ; preds = %19, %18, %11
  %25 = load i32, ptr %3, align 4
  ret i32 %25
}